	.file	"optimization.c"
	.text
	.globl	delay
	.type	delay, @function
delay:
.LFB0:
	.cfi_startproc
	pushq	%rbp
	.cfi_def_cfa_offset 16
	.cfi_offset 6, -16
	movq	%rsp, %rbp
	.cfi_def_cfa_register 6
	movq	%rdi, -8(%rbp)
	jmp	.L2
.L3:
	subq	$1, -8(%rbp)
.L2:
	cmpq	$0, -8(%rbp)
	jne	.L3
	nop
	popq	%rbp
	.cfi_def_cfa 7, 8
	ret
	.cfi_endproc
.LFE0:
	.size	delay, .-delay
	.globl	copy_struct
	.type	copy_struct, @function
copy_struct:
.LFB1:
	.cfi_startproc
	pushq	%rbp
	.cfi_def_cfa_offset 16
	.cfi_offset 6, -16
	movq	%rsp, %rbp
	.cfi_def_cfa_register 6
	movq	%rdi, -8(%rbp)
	movq	%rsi, -16(%rbp)
	movq	-8(%rbp), %rax
	movq	-16(%rbp), %rdx
	movq	(%rdx), %rcx
	movq	%rcx, (%rax)
	movq	8(%rdx), %rcx
	movq	%rcx, 8(%rax)
	movq	16(%rdx), %rcx
	movq	%rcx, 16(%rax)
	movq	24(%rdx), %rcx
	movq	%rcx, 24(%rax)
	movq	32(%rdx), %rcx
	movq	%rcx, 32(%rax)
	movq	40(%rdx), %rcx
	movq	%rcx, 40(%rax)
	movq	48(%rdx), %rcx
	movq	%rcx, 48(%rax)
	movq	56(%rdx), %rdx
	movq	%rdx, 56(%rax)
	nop
	popq	%rbp
	.cfi_def_cfa 7, 8
	ret
	.cfi_endproc
.LFE1:
	.size	copy_struct, .-copy_struct
	.globl	main
	.type	main, @function
main:
.LFB2:
	.cfi_startproc
	pushq	%rbp
	.cfi_def_cfa_offset 16
	.cfi_offset 6, -16
	movq	%rsp, %rbp
	.cfi_def_cfa_register 6
	subq	$144, %rsp
	movq	%fs:40, %rax
	movq	%rax, -8(%rbp)
	xorl	%eax, %eax
	movabsq	$1311768465173141112, %rdi
	call	delay
	leaq	-80(%rbp), %rdx
	leaq	-144(%rbp), %rax
	movq	%rdx, %rsi
	movq	%rax, %rdi
	call	copy_struct
	movl	$0, %eax
	movq	-8(%rbp), %rcx
	xorq	%fs:40, %rcx
	je	.L7
	call	__stack_chk_fail
.L7:
	leave
	.cfi_def_cfa 7, 8
	ret
	.cfi_endproc
.LFE2:
	.size	main, .-main
	.ident	"GCC: (Ubuntu 5.2.1-22ubuntu2) 5.2.1 20151010"
	.section	.note.GNU-stack,"",@progbits
